target datalayout = "e-m:e-p270:32:32-p271:32:32-p272:64:64-i64:64-i128:128-f80:128-n8:16:32:64-S128"
target triple = "x86_64-pc-linux-gnu"

%struct.pointf_s = type { double, double }
%struct.Agobj_s = type { %struct.Agtag_s, ptr }
%struct.Agtag_s = type { i32, i64 }
%struct.Agnodeinfo_t = type { %struct.Agrec_s, ptr, ptr, %struct.pointf_s, double, double, %struct.boxf, double, double, double, double, double, ptr, ptr, ptr, i8, i8, i8, i8, i32, i32, i32, ptr, double, i8, i8, ptr, ptr, i8, i64, i8, i8, i8, ptr, ptr, %struct.elist, %struct.elist, %struct.elist, %struct.elist, %struct.elist, ptr, i32, ptr, i32, i32, double, %struct.elist, %struct.elist, %struct.elist, %struct.elist, ptr, i32, i32, i32, [1 x double] }
%struct.Agrec_s = type { ptr, ptr }
%struct.boxf = type { %struct.pointf_s, %struct.pointf_s }
%struct.elist = type { ptr, i64 }
%struct.Agraphinfo_t = type { %struct.Agrec_s, ptr, ptr, %struct.boxf, [4 x %struct.pointf_s], i8, i8, i8, i8, i32, double, double, i16, ptr, ptr, ptr, ptr, i32, ptr, ptr, ptr, ptr, i16, i16, i32, ptr, ptr, ptr, ptr, ptr, i32, ptr, ptr, %struct.nlist_t, ptr, ptr, i32, i32, i8, i8, i32, i32, i32, ptr, ptr, ptr, ptr, i8, i8, i8, i8, i8 }
%struct.nlist_t = type { ptr, i64 }
%struct.anon.3 = type { ptr, ptr, ptr, double, ptr, i64, i64, double, double, double, double }

; Function Attrs: nounwind uwtable
define internal zeroext i1 @epsf_inside(ptr noundef %0, double %1, double %2) #0 {
  %4 = alloca %struct.pointf_s, align 8
  %5 = alloca ptr, align 8
  %6 = alloca %struct.pointf_s, align 8
  %7 = alloca double, align 8
  %8 = alloca ptr, align 8
  %9 = alloca %struct.pointf_s, align 8
  %10 = getelementptr inbounds nuw { double, double }, ptr %4, i32 0, i32 0
  store double %1, ptr %10, align 8
  %11 = getelementptr inbounds nuw { double, double }, ptr %4, i32 0, i32 1
  store double %2, ptr %11, align 8
  store ptr %0, ptr %5, align 8, !tbaa !157
  call void @llvm.lifetime.start.p0(i64 16, ptr %6) #13
  call void @llvm.lifetime.start.p0(i64 8, ptr %7) #13
  call void @llvm.lifetime.start.p0(i64 8, ptr %8) #13
  %12 = load ptr, ptr %5, align 8, !tbaa !157
  %13 = getelementptr inbounds nuw %struct.anon.3, ptr %12, i32 0, i32 0
  %14 = load ptr, ptr %13, align 8, !tbaa !98
  store ptr %14, ptr %8, align 8, !tbaa !35
  call void @llvm.lifetime.start.p0(i64 16, ptr %9) #13
  %15 = load ptr, ptr %8, align 8, !tbaa !35
  %16 = call ptr @agraphof(ptr noundef %15)
  %17 = getelementptr inbounds nuw %struct.Agobj_s, ptr %16, i32 0, i32 1
  %18 = load ptr, ptr %17, align 8, !tbaa !37
  %19 = getelementptr inbounds nuw %struct.Agraphinfo_t, ptr %18, i32 0, i32 9
  %20 = load i32, ptr %19, align 4, !tbaa !118
  %21 = and i32 %20, 3
  %22 = mul nsw i32 90, %21
  %23 = getelementptr inbounds nuw { double, double }, ptr %4, i32 0, i32 0
  %24 = load double, ptr %23, align 8
  %25 = getelementptr inbounds nuw { double, double }, ptr %4, i32 0, i32 1
  %26 = load double, ptr %25, align 8
  %27 = call { double, double } @ccwrotatepf(double %24, double %26, i32 noundef %22)
  %28 = getelementptr inbounds nuw { double, double }, ptr %9, i32 0, i32 0
  %29 = extractvalue { double, double } %27, 0
  store double %29, ptr %28, align 8
  %30 = getelementptr inbounds nuw { double, double }, ptr %9, i32 0, i32 1
  %31 = extractvalue { double, double } %27, 1
  store double %31, ptr %30, align 8
  call void @llvm.memcpy.p0.p0.i64(ptr align 8 %6, ptr align 8 %9, i64 16, i1 false), !tbaa.struct !16
  call void @llvm.lifetime.end.p0(i64 16, ptr %9) #13
  %32 = load ptr, ptr %8, align 8, !tbaa !35
  %33 = getelementptr inbounds nuw %struct.Agobj_s, ptr %32, i32 0, i32 1
  %34 = load ptr, ptr %33, align 8, !tbaa !37
  %35 = getelementptr inbounds nuw %struct.Agnodeinfo_t, ptr %34, i32 0, i32 7
  %36 = load double, ptr %35, align 8, !tbaa !150
  %37 = fdiv double %36, 2.000000e+00
  store double %37, ptr %7, align 8, !tbaa !17
  %38 = getelementptr inbounds nuw %struct.pointf_s, ptr %6, i32 0, i32 1
  %39 = load double, ptr %38, align 8, !tbaa !23
  %40 = load double, ptr %7, align 8, !tbaa !17
  %41 = fneg double %40
  %42 = fcmp oge double %39, %41
  br i1 %42, label %43, label %67

43:                                               ; preds = %3
  %44 = getelementptr inbounds nuw %struct.pointf_s, ptr %6, i32 0, i32 1
  %45 = load double, ptr %44, align 8, !tbaa !23
  %46 = load double, ptr %7, align 8, !tbaa !17
  %47 = fcmp ole double %45, %46
  br i1 %47, label %48, label %67

48:                                               ; preds = %43
  %49 = getelementptr inbounds nuw %struct.pointf_s, ptr %6, i32 0, i32 0
  %50 = load double, ptr %49, align 8, !tbaa !21
  %51 = load ptr, ptr %8, align 8, !tbaa !35
  %52 = getelementptr inbounds nuw %struct.Agobj_s, ptr %51, i32 0, i32 1
  %53 = load ptr, ptr %52, align 8, !tbaa !37
  %54 = getelementptr inbounds nuw %struct.Agnodeinfo_t, ptr %53, i32 0, i32 8
  %55 = load double, ptr %54, align 8, !tbaa !153
  %56 = fneg double %55
  %57 = fcmp oge double %50, %56
  br i1 %57, label %58, label %67

58:                                               ; preds = %48
  %59 = getelementptr inbounds nuw %struct.pointf_s, ptr %6, i32 0, i32 0
  %60 = load double, ptr %59, align 8, !tbaa !21
  %61 = load ptr, ptr %8, align 8, !tbaa !35
  %62 = getelementptr inbounds nuw %struct.Agobj_s, ptr %61, i32 0, i32 1
  %63 = load ptr, ptr %62, align 8, !tbaa !37
  %64 = getelementptr inbounds nuw %struct.Agnodeinfo_t, ptr %63, i32 0, i32 9
  %65 = load double, ptr %64, align 8, !tbaa !192
  %66 = fcmp ole double %60, %65
  br label %67

67:                                               ; preds = %58, %48, %43, %3
  %68 = phi i1 [ false, %48 ], [ false, %43 ], [ false, %3 ], [ %66, %58 ]
  call void @llvm.lifetime.end.p0(i64 8, ptr %8) #13
  call void @llvm.lifetime.end.p0(i64 8, ptr %7) #13
  call void @llvm.lifetime.end.p0(i64 16, ptr %6) #13
  ret i1 %68
}