; Function Attrs: nounwind uwtable
define internal zeroext i1 @epsf_inside(ptr noundef readonly captures(none) %0, double %1, double %2) #0 {
  %4 = load ptr, ptr %0, align 8, !tbaa !81
  %5 = tail call ptr @agraphof(ptr noundef %4) #26
  %6 = getelementptr inbounds nuw i8, ptr %5, i64 16
  %7 = load ptr, ptr %6, align 8, !tbaa !21
  %8 = getelementptr inbounds nuw i8, ptr %7, i64 132
  %9 = load i32, ptr %8, align 4, !tbaa !101
  %10 = and i32 %9, 3
  %11 = mul nuw nsw i32 %10, 90
  %12 = tail call { double, double } @ccwrotatepf(double %1, double %2, i32 noundef %11) #26
  %13 = extractvalue { double, double } %12, 0
  %14 = extractvalue { double, double } %12, 1
  %15 = getelementptr inbounds nuw i8, ptr %4, i64 16
  %16 = load ptr, ptr %15, align 8, !tbaa !21
  %17 = getelementptr inbounds nuw i8, ptr %16, i64 96
  %18 = load double, ptr %17, align 8, !tbaa !132
  %19 = fmul double %18, 5.000000e-01
  %20 = fneg double %19
  %21 = fcmp ult double %14, %20
  %22 = fcmp ugt double %14, %19
  %or.cond = or i1 %21, %22
  br i1 %or.cond, label %32, label %23

23:                                               ; preds = %3
  %24 = getelementptr inbounds nuw i8, ptr %16, i64 104
  %25 = load double, ptr %24, align 8, !tbaa !133
  %26 = fneg double %25
  %27 = fcmp ult double %13, %26
  br i1 %27, label %32, label %28

28:                                               ; preds = %23
  %29 = getelementptr inbounds nuw i8, ptr %16, i64 112
  %30 = load double, ptr %29, align 8, !tbaa !174
  %31 = fcmp ole double %13, %30
  br label %32

32:                                               ; preds = %28, %23, %3
  %33 = phi i1 [ false, %23 ], [ false, %3 ], [ %31, %28 ]
  ret i1 %33
}